target datalayout = "e-m:e-p270:32:32-p271:32:32-p272:64:64-i64:64-i128:128-f80:128-n8:16:32:64-S128"
target triple = "x86_64-pc-linux-gnu"

%"struct.open3d::core::TensorRef" = type { ptr, i64, i64, [5 x i64], [5 x i64] }

; Function Attrs: mustprogress nounwind ssp uwtable
define void @_ZN6open3d4core7Indexer17BroadcastRestrideERNS0_9TensorRefElPKl(ptr noundef nonnull align 8 dereferenceable(104) %0, i64 noundef %1, ptr noundef %2) #4 align 2 {
  %4 = alloca ptr, align 8
  %5 = alloca i64, align 8
  %6 = alloca ptr, align 8
  %7 = alloca i64, align 8
  %8 = alloca i64, align 8
  %9 = alloca i64, align 8
  %10 = alloca i64, align 8
  %11 = alloca i64, align 8
  store ptr %0, ptr %4, align 8, !tbaa !104
  store i64 %1, ptr %5, align 8, !tbaa !32
  store ptr %2, ptr %6, align 8, !tbaa !71
  call void @llvm.lifetime.start.p0(i64 8, ptr %7) #27
  %12 = load ptr, ptr %4, align 8, !tbaa !104
  %13 = getelementptr inbounds nuw %"struct.open3d::core::TensorRef", ptr %12, i32 0, i32 1
  %14 = load i64, ptr %13, align 8, !tbaa !39
  store i64 %14, ptr %7, align 8, !tbaa !32
  call void @llvm.lifetime.start.p0(i64 8, ptr %8) #27
  %15 = load i64, ptr %5, align 8, !tbaa !32
  %16 = load i64, ptr %7, align 8, !tbaa !32
  %17 = sub nsw i64 %15, %16
  store i64 %17, ptr %8, align 8, !tbaa !32
  call void @llvm.lifetime.start.p0(i64 8, ptr %9) #27
  %18 = load i64, ptr %7, align 8, !tbaa !32
  %19 = sub nsw i64 %18, 1
  store i64 %19, ptr %9, align 8, !tbaa !32
  br label %20

20:                                               ; preds = %47, %3
  %21 = load i64, ptr %9, align 8, !tbaa !32
  %22 = icmp sge i64 %21, 0
  br i1 %22, label %24, label %23

23:                                               ; preds = %20
  call void @llvm.lifetime.end.p0(i64 8, ptr %9) #27
  br label %50

24:                                               ; preds = %20
  %25 = load ptr, ptr %4, align 8, !tbaa !104
  %26 = getelementptr inbounds nuw %"struct.open3d::core::TensorRef", ptr %25, i32 0, i32 3
  %27 = load i64, ptr %9, align 8, !tbaa !32
  %28 = getelementptr inbounds [5 x i64], ptr %26, i64 0, i64 %27
  %29 = load i64, ptr %28, align 8, !tbaa !32
  %30 = load ptr, ptr %4, align 8, !tbaa !104
  %31 = getelementptr inbounds nuw %"struct.open3d::core::TensorRef", ptr %30, i32 0, i32 3
  %32 = load i64, ptr %8, align 8, !tbaa !32
  %33 = load i64, ptr %9, align 8, !tbaa !32
  %34 = add nsw i64 %32, %33
  %35 = getelementptr inbounds [5 x i64], ptr %31, i64 0, i64 %34
  store i64 %29, ptr %35, align 8, !tbaa !32
  %36 = load ptr, ptr %4, align 8, !tbaa !104
  %37 = getelementptr inbounds nuw %"struct.open3d::core::TensorRef", ptr %36, i32 0, i32 4
  %38 = load i64, ptr %9, align 8, !tbaa !32
  %39 = getelementptr inbounds [5 x i64], ptr %37, i64 0, i64 %38
  %40 = load i64, ptr %39, align 8, !tbaa !32
  %41 = load ptr, ptr %4, align 8, !tbaa !104
  %42 = getelementptr inbounds nuw %"struct.open3d::core::TensorRef", ptr %41, i32 0, i32 4
  %43 = load i64, ptr %8, align 8, !tbaa !32
  %44 = load i64, ptr %9, align 8, !tbaa !32
  %45 = add nsw i64 %43, %44
  %46 = getelementptr inbounds [5 x i64], ptr %42, i64 0, i64 %45
  store i64 %40, ptr %46, align 8, !tbaa !32
  br label %47

47:                                               ; preds = %24
  %48 = load i64, ptr %9, align 8, !tbaa !32
  %49 = add nsw i64 %48, -1
  store i64 %49, ptr %9, align 8, !tbaa !32
  br label %20, !llvm.loop !136

50:                                               ; preds = %23
  call void @llvm.lifetime.start.p0(i64 8, ptr %10) #27
  store i64 0, ptr %10, align 8, !tbaa !32
  br label %51

51:                                               ; preds = %65, %50
  %52 = load i64, ptr %10, align 8, !tbaa !32
  %53 = load i64, ptr %8, align 8, !tbaa !32
  %54 = icmp slt i64 %52, %53
  br i1 %54, label %56, label %55

55:                                               ; preds = %51
  call void @llvm.lifetime.end.p0(i64 8, ptr %10) #27
  br label %68

56:                                               ; preds = %51
  %57 = load ptr, ptr %4, align 8, !tbaa !104
  %58 = getelementptr inbounds nuw %"struct.open3d::core::TensorRef", ptr %57, i32 0, i32 3
  %59 = load i64, ptr %10, align 8, !tbaa !32
  %60 = getelementptr inbounds [5 x i64], ptr %58, i64 0, i64 %59
  store i64 1, ptr %60, align 8, !tbaa !32
  %61 = load ptr, ptr %4, align 8, !tbaa !104
  %62 = getelementptr inbounds nuw %"struct.open3d::core::TensorRef", ptr %61, i32 0, i32 4
  %63 = load i64, ptr %10, align 8, !tbaa !32
  %64 = getelementptr inbounds [5 x i64], ptr %62, i64 0, i64 %63
  store i64 0, ptr %64, align 8, !tbaa !32
  br label %65

65:                                               ; preds = %56
  %66 = load i64, ptr %10, align 8, !tbaa !32
  %67 = add nsw i64 %66, 1
  store i64 %67, ptr %10, align 8, !tbaa !32
  br label %51, !llvm.loop !137

68:                                               ; preds = %55
  %69 = load i64, ptr %5, align 8, !tbaa !32
  %70 = load ptr, ptr %4, align 8, !tbaa !104
  %71 = getelementptr inbounds nuw %"struct.open3d::core::TensorRef", ptr %70, i32 0, i32 1
  store i64 %69, ptr %71, align 8, !tbaa !39
  call void @llvm.lifetime.start.p0(i64 8, ptr %11) #27
  store i64 0, ptr %11, align 8, !tbaa !32
  br label %72

72:                                               ; preds = %96, %68
  %73 = load i64, ptr %11, align 8, !tbaa !32
  %74 = load i64, ptr %5, align 8, !tbaa !32
  %75 = icmp slt i64 %73, %74
  br i1 %75, label %77, label %76

76:                                               ; preds = %72
  call void @llvm.lifetime.end.p0(i64 8, ptr %11) #27
  br label %99

77:                                               ; preds = %72
  %78 = load ptr, ptr %4, align 8, !tbaa !104
  %79 = getelementptr inbounds nuw %"struct.open3d::core::TensorRef", ptr %78, i32 0, i32 3
  %80 = load i64, ptr %11, align 8, !tbaa !32
  %81 = getelementptr inbounds [5 x i64], ptr %79, i64 0, i64 %80
  %82 = load i64, ptr %81, align 8, !tbaa !32
  %83 = icmp eq i64 %82, 1
  br i1 %83, label %84, label %95

84:                                               ; preds = %77
  %85 = load ptr, ptr %6, align 8, !tbaa !71
  %86 = load i64, ptr %11, align 8, !tbaa !32
  %87 = getelementptr inbounds i64, ptr %85, i64 %86
  %88 = load i64, ptr %87, align 8, !tbaa !32
  %89 = icmp ne i64 %88, 1
  br i1 %89, label %90, label %95

90:                                               ; preds = %84
  %91 = load ptr, ptr %4, align 8, !tbaa !104
  %92 = getelementptr inbounds nuw %"struct.open3d::core::TensorRef", ptr %91, i32 0, i32 4
  %93 = load i64, ptr %11, align 8, !tbaa !32
  %94 = getelementptr inbounds [5 x i64], ptr %92, i64 0, i64 %93
  store i64 0, ptr %94, align 8, !tbaa !32
  br label %95

95:                                               ; preds = %90, %84, %77
  br label %96

96:                                               ; preds = %95
  %97 = load i64, ptr %11, align 8, !tbaa !32
  %98 = add nsw i64 %97, 1
  store i64 %98, ptr %11, align 8, !tbaa !32
  br label %72, !llvm.loop !138

99:                                               ; preds = %76
  call void @llvm.lifetime.end.p0(i64 8, ptr %8) #27
  call void @llvm.lifetime.end.p0(i64 8, ptr %7) #27
  ret void
}