; Function Attrs: mustprogress nofree norecurse nosync nounwind ssp memory(argmem: readwrite) uwtable
define void @_ZN6open3d4core7Indexer17BroadcastRestrideERNS0_9TensorRefElPKl(ptr noundef nonnull align 8 captures(none) dereferenceable(104) %0, i64 noundef %1, ptr noundef readonly captures(none) %2) local_unnamed_addr #14 align 2 {
  %4 = getelementptr inbounds nuw i8, ptr %0, i64 8
  %5 = load i64, ptr %4, align 8, !tbaa !63
  %6 = sub i64 %1, %5
  %7 = icmp sgt i64 %5, 0
  br i1 %7, label %.lr.ph, label %.preheader

.lr.ph:                                           ; preds = %3
  %8 = getelementptr inbounds nuw i8, ptr %0, i64 24
  %9 = getelementptr inbounds nuw i8, ptr %0, i64 64
  br label %13

.preheader:                                       ; preds = %13, %3
  %10 = icmp sgt i64 %6, 0
  br i1 %10, label %.lr.ph37, label %._crit_edge

.lr.ph37:                                         ; preds = %.preheader
  %11 = getelementptr inbounds nuw i8, ptr %0, i64 24
  %12 = getelementptr inbounds nuw i8, ptr %0, i64 64
  br label %25

13:                                               ; preds = %.lr.ph, %13
  %.034.in35 = phi i64 [ %5, %.lr.ph ], [ %.034, %13 ]
  %.034 = add nsw i64 %.034.in35, -1
  %14 = getelementptr inbounds nuw [5 x i64], ptr %8, i64 0, i64 %.034
  %15 = load i64, ptr %14, align 8, !tbaa !42
  %16 = add nsw i64 %.034, %6
  %17 = getelementptr inbounds [5 x i64], ptr %8, i64 0, i64 %16
  store i64 %15, ptr %17, align 8, !tbaa !42
  %18 = getelementptr inbounds nuw [5 x i64], ptr %9, i64 0, i64 %.034
  %19 = load i64, ptr %18, align 8, !tbaa !42
  %20 = getelementptr inbounds [5 x i64], ptr %9, i64 0, i64 %16
  store i64 %19, ptr %20, align 8, !tbaa !42
  %21 = icmp samesign ugt i64 %.034.in35, 1
  br i1 %21, label %13, label %.preheader, !llvm.loop !73

._crit_edge:                                      ; preds = %25, %.preheader
  store i64 %1, ptr %4, align 8, !tbaa !63
  %22 = icmp sgt i64 %1, 0
  br i1 %22, label %.lr.ph40, label %._crit_edge41

.lr.ph40:                                         ; preds = %._crit_edge
  %23 = getelementptr inbounds nuw i8, ptr %0, i64 24
  %24 = getelementptr inbounds nuw i8, ptr %0, i64 64
  br label %29

25:                                               ; preds = %.lr.ph37, %25
  %.03336 = phi i64 [ 0, %.lr.ph37 ], [ %28, %25 ]
  %26 = getelementptr inbounds nuw [5 x i64], ptr %11, i64 0, i64 %.03336
  store i64 1, ptr %26, align 8, !tbaa !42
  %27 = getelementptr inbounds nuw [5 x i64], ptr %12, i64 0, i64 %.03336
  store i64 0, ptr %27, align 8, !tbaa !42
  %28 = add nuw nsw i64 %.03336, 1
  %exitcond.not = icmp eq i64 %28, %6
  br i1 %exitcond.not, label %._crit_edge, label %25, !llvm.loop !74

._crit_edge41:                                    ; preds = %38, %._crit_edge
  ret void

29:                                               ; preds = %.lr.ph40, %38
  %.038 = phi i64 [ 0, %.lr.ph40 ], [ %39, %38 ]
  %30 = getelementptr inbounds nuw [5 x i64], ptr %23, i64 0, i64 %.038
  %31 = load i64, ptr %30, align 8, !tbaa !42
  %32 = icmp eq i64 %31, 1
  br i1 %32, label %33, label %38

33:                                               ; preds = %29
  %34 = getelementptr inbounds nuw i64, ptr %2, i64 %.038
  %35 = load i64, ptr %34, align 8, !tbaa !42
  %.not = icmp eq i64 %35, 1
  br i1 %.not, label %38, label %36

36:                                               ; preds = %33
  %37 = getelementptr inbounds nuw [5 x i64], ptr %24, i64 0, i64 %.038
  store i64 0, ptr %37, align 8, !tbaa !42
  br label %38

38:                                               ; preds = %29, %33, %36
  %39 = add nuw nsw i64 %.038, 1
  %exitcond42.not = icmp eq i64 %39, %1
  br i1 %exitcond42.not, label %._crit_edge41, label %29, !llvm.loop !75
}